target datalayout = "e-m:e-p270:32:32-p271:32:32-p272:64:64-i64:64-i128:128-f80:128-n8:16:32:64-S128"
target triple = "x86_64-pc-linux-gnu"

%struct._psqlSettings = type { ptr, i32, ptr, i8, ptr, ptr, %struct.printQueryOpt, ptr, ptr, ptr, i8, i8, i32, i32, ptr, ptr, i8, [4 x ptr], i8, i32, ptr, i8, i32, ptr, ptr, i64, i64, i8, ptr, ptr, ptr, i8, i8, i8, i8, i8, i8, i8, i32, i32, i32, i32, i32, i32, i32, i32, ptr, ptr, ptr, i32, i8, i32 }
%struct.printQueryOpt = type { %struct.printTableOpt, ptr, ptr, ptr, i8, ptr, i32 }
%struct.printTableOpt = type { i32, i16, i32, i32, i16, i16, i32, i8, i8, i8, i8, i64, ptr, %struct.separator, %struct.separator, [2 x i8], i8, ptr, i32, i32, i32, i32, i32, i32 }
%struct.separator = type { ptr, i8 }
%struct.PQExpBufferData = type { ptr, i64, i64 }

@pset = external global %struct._psqlSettings, align 8
@.str.1 = private unnamed_addr constant [7 x i8] c"Schema\00", align 1
@.str.9 = private unnamed_addr constant [10 x i8] c"n.nspname\00", align 1
@.str.18 = private unnamed_addr constant [5 x i8] c"Type\00", align 1
@.str.26 = private unnamed_addr constant [6 x i8] c"Owner\00", align 1
@.str.152 = private unnamed_addr constant [6 x i8] c"table\00", align 1
@.str.155 = private unnamed_addr constant [9 x i8] c"sequence\00", align 1
@.str.167 = private unnamed_addr constant [18 x i8] c"Access privileges\00", align 1
@listDefaultACLs.translate_columns = internal constant [4 x i8] c"\00\00\01\00", align 1
@.str.169 = private unnamed_addr constant [9 x i8] c"function\00", align 1
@.str.170 = private unnamed_addr constant [5 x i8] c"type\00", align 1
@.str.171 = private unnamed_addr constant [7 x i8] c"schema\00", align 1
@.str.172 = private unnamed_addr constant [12 x i8] c"d.defaclacl\00", align 1
@.str.173 = private unnamed_addr constant [105 x i8] c"\0AFROM pg_catalog.pg_default_acl d\0A     LEFT JOIN pg_catalog.pg_namespace n ON n.oid = d.defaclnamespace\0A\00", align 1
@.str.174 = private unnamed_addr constant [41 x i8] c"pg_catalog.pg_get_userbyid(d.defaclrole)\00", align 1
@.str.175 = private unnamed_addr constant [18 x i8] c"ORDER BY 1, 2, 3;\00", align 1
@.str.176 = private unnamed_addr constant [26 x i8] c"Default access privileges\00", align 1
@.str.916 = private unnamed_addr constant [110 x i8] c"CASE WHEN pg_catalog.array_length(%s, 1) = 0 THEN '%s' ELSE pg_catalog.array_to_string(%s, E'\\n') END AS \22%s\22\00", align 1
@.str.917 = private unnamed_addr constant [7 x i8] c"(none)\00", align 1

; Function Attrs: nounwind uwtable
define internal void @printACLColumn(ptr noundef %0, ptr noundef %1) #0 {
  %3 = alloca ptr, align 8
  %4 = alloca ptr, align 8
  store ptr %0, ptr %3, align 8
  store ptr %1, ptr %4, align 8
  %5 = load ptr, ptr %3, align 8
  %6 = load ptr, ptr %4, align 8
  %7 = load ptr, ptr %4, align 8
  call void (ptr, ptr, ...) @appendPQExpBuffer(ptr noundef %5, ptr noundef @.str.916, ptr noundef %6, ptr noundef @.str.917, ptr noundef %7, ptr noundef @.str.167)
  ret void
}

; Function Attrs: nounwind uwtable
define dso_local zeroext i1 @listDefaultACLs(ptr noundef %0) #0 {
  %2 = alloca i1, align 1
  %3 = alloca ptr, align 8
  %4 = alloca %struct.PQExpBufferData, align 8
  %5 = alloca ptr, align 8
  %6 = alloca %struct.printQueryOpt, align 8
  %7 = alloca i32, align 4
  store ptr %0, ptr %3, align 8
  call void @llvm.lifetime.start.p0(i64 24, ptr %4) #8
  call void @llvm.lifetime.start.p0(i64 8, ptr %5) #8
  call void @llvm.lifetime.start.p0(i64 168, ptr %6) #8
  call void @llvm.memcpy.p0.p0.i64(ptr align 8 %6, ptr align 8 getelementptr inbounds nuw (%struct._psqlSettings, ptr @pset, i32 0, i32 6), i64 168, i1 false)
  call void @initPQExpBuffer(ptr noundef %4)
  call void (ptr, ptr, ...) @printfPQExpBuffer(ptr noundef %4, ptr noundef @.str.168, ptr noundef @.str.26, ptr noundef @.str.1, i32 noundef 114, ptr noundef @.str.152, i32 noundef 83, ptr noundef @.str.155, i32 noundef 102, ptr noundef @.str.169, i32 noundef 84, ptr noundef @.str.170, i32 noundef 110, ptr noundef @.str.171, ptr noundef @.str.18)
  call void @printACLColumn(ptr noundef %4, ptr noundef @.str.172)
  call void @appendPQExpBufferStr(ptr noundef %4, ptr noundef @.str.173)
  %8 = load ptr, ptr %3, align 8
  %9 = call zeroext i1 @validateSQLNamePattern(ptr noundef %4, ptr noundef %8, i1 noundef zeroext false, i1 noundef zeroext false, ptr noundef null, ptr noundef @.str.9, ptr noundef @.str.174, ptr noundef null, ptr noundef null, i32 noundef 3)
  br i1 %9, label %11, label %10

10:                                               ; preds = %1
  br label %29

11:                                               ; preds = %1
  call void @appendPQExpBufferStr(ptr noundef %4, ptr noundef @.str.175)
  %12 = getelementptr inbounds nuw %struct.PQExpBufferData, ptr %4, i32 0, i32 0
  %13 = load ptr, ptr %12, align 8
  %14 = call ptr @PSQLexec(ptr noundef %13)
  store ptr %14, ptr %5, align 8
  %15 = load ptr, ptr %5, align 8
  %16 = icmp ne ptr %15, null
  br i1 %16, label %18, label %17

17:                                               ; preds = %11
  br label %29

18:                                               ; preds = %11
  call void (ptr, ptr, ...) @printfPQExpBuffer(ptr noundef %4, ptr noundef @.str.176)
  %19 = getelementptr inbounds nuw %struct.PQExpBufferData, ptr %4, i32 0, i32 0
  %20 = load ptr, ptr %19, align 8
  %21 = getelementptr inbounds nuw %struct.printQueryOpt, ptr %6, i32 0, i32 2
  store ptr %20, ptr %21, align 8
  %22 = getelementptr inbounds nuw %struct.printQueryOpt, ptr %6, i32 0, i32 4
  store i8 1, ptr %22, align 8
  %23 = getelementptr inbounds nuw %struct.printQueryOpt, ptr %6, i32 0, i32 5
  store ptr @listDefaultACLs.translate_columns, ptr %23, align 8
  %24 = getelementptr inbounds nuw %struct.printQueryOpt, ptr %6, i32 0, i32 6
  store i32 4, ptr %24, align 8
  %25 = load ptr, ptr %5, align 8
  %26 = load ptr, ptr getelementptr inbounds nuw (%struct._psqlSettings, ptr @pset, i32 0, i32 2), align 8
  %27 = load ptr, ptr getelementptr inbounds nuw (%struct._psqlSettings, ptr @pset, i32 0, i32 28), align 8
  call void @printQuery(ptr noundef %25, ptr noundef %6, ptr noundef %26, i1 noundef zeroext false, ptr noundef %27)
  call void @termPQExpBuffer(ptr noundef %4)
  %28 = load ptr, ptr %5, align 8
  call void @PQclear(ptr noundef %28)
  store i1 true, ptr %2, align 1
  store i32 1, ptr %7, align 4
  br label %30

29:                                               ; preds = %17, %10
  call void @termPQExpBuffer(ptr noundef %4)
  store i1 false, ptr %2, align 1
  store i32 1, ptr %7, align 4
  br label %30

30:                                               ; preds = %29, %18
  call void @llvm.lifetime.end.p0(i64 168, ptr %6) #8
  call void @llvm.lifetime.end.p0(i64 8, ptr %5) #8
  call void @llvm.lifetime.end.p0(i64 24, ptr %4) #8
  %31 = load i1, ptr %2, align 1
  ret i1 %31
}