; Function Attrs: nounwind uwtable
define dso_local noundef zeroext i1 @listDefaultACLs(ptr noundef %0) local_unnamed_addr #0 {
  %2 = alloca %struct.PQExpBufferData, align 8
  %3 = alloca %struct.printQueryOpt, align 8
  call void @llvm.lifetime.start.p0(i64 24, ptr nonnull %2) #8
  call void @llvm.lifetime.start.p0(i64 168, ptr nonnull %3) #8
  call void @llvm.memcpy.p0.p0.i64(ptr noundef nonnull align 8 dereferenceable(168) %3, ptr noundef nonnull align 8 dereferenceable(168) getelementptr inbounds nuw (i8, ptr @pset, i64 48), i64 168, i1 false)
  call void @initPQExpBuffer(ptr noundef nonnull %2) #8
  call void (ptr, ptr, ...) @printfPQExpBuffer(ptr noundef nonnull %2, ptr noundef nonnull @.str.168, ptr noundef nonnull @.str.26, ptr noundef nonnull @.str.1, i32 noundef 114, ptr noundef nonnull @.str.152, i32 noundef 83, ptr noundef nonnull @.str.155, i32 noundef 102, ptr noundef nonnull @.str.169, i32 noundef 84, ptr noundef nonnull @.str.170, i32 noundef 110, ptr noundef nonnull @.str.171, ptr noundef nonnull @.str.18) #8
  call void (ptr, ptr, ...) @appendPQExpBuffer(ptr noundef nonnull %2, ptr noundef nonnull @.str.916, ptr noundef nonnull @.str.172, ptr noundef nonnull @.str.917, ptr noundef nonnull @.str.172, ptr noundef nonnull @.str.167) #8
  call void @appendPQExpBufferStr(ptr noundef nonnull %2, ptr noundef nonnull @.str.173) #8
  %4 = call fastcc zeroext i1 @validateSQLNamePattern(ptr noundef %2, ptr noundef %0, i1 noundef zeroext false, i1 noundef zeroext false, ptr noundef null, ptr noundef nonnull @.str.9, ptr noundef nonnull @.str.174, ptr noundef null, ptr noundef null, i32 noundef 3)
  br i1 %4, label %5, label %16

5:                                                ; preds = %1
  call void @appendPQExpBufferStr(ptr noundef nonnull %2, ptr noundef nonnull @.str.175) #8
  %6 = load ptr, ptr %2, align 8
  %7 = call ptr @PSQLexec(ptr noundef %6) #8
  %.not = icmp eq ptr %7, null
  br i1 %.not, label %16, label %8

8:                                                ; preds = %5
  call void (ptr, ptr, ...) @printfPQExpBuffer(ptr noundef nonnull %2, ptr noundef nonnull @.str.176) #8
  %9 = load ptr, ptr %2, align 8
  %10 = getelementptr inbounds nuw i8, ptr %3, i64 128
  store ptr %9, ptr %10, align 8
  %11 = getelementptr inbounds nuw i8, ptr %3, i64 144
  store i8 1, ptr %11, align 8
  %12 = getelementptr inbounds nuw i8, ptr %3, i64 152
  store ptr @listDefaultACLs.translate_columns, ptr %12, align 8
  %13 = getelementptr inbounds nuw i8, ptr %3, i64 160
  store i32 4, ptr %13, align 8
  %14 = load ptr, ptr getelementptr inbounds nuw (i8, ptr @pset, i64 16), align 8
  %15 = load ptr, ptr getelementptr inbounds nuw (i8, ptr @pset, i64 376), align 8
  call void @printQuery(ptr noundef nonnull %7, ptr noundef nonnull %3, ptr noundef %14, i1 noundef zeroext false, ptr noundef %15) #8
  call void @termPQExpBuffer(ptr noundef nonnull %2) #8
  call void @PQclear(ptr noundef nonnull %7) #8
  br label %17

16:                                               ; preds = %5, %1
  call void @termPQExpBuffer(ptr noundef nonnull %2) #8
  br label %17

17:                                               ; preds = %16, %8
  %.0 = phi i1 [ true, %8 ], [ false, %16 ]
  call void @llvm.lifetime.end.p0(i64 168, ptr nonnull %3) #8
  call void @llvm.lifetime.end.p0(i64 24, ptr nonnull %2) #8
  ret i1 %.0
}